target datalayout = "e-m:e-p270:32:32-p271:32:32-p272:64:64-i64:64-i128:128-f80:128-n8:16:32:64-S128"
target triple = "x86_64-pc-linux-gnu"

%"class.nanogui::Screen" = type { %"class.nanogui::Widget.base", ptr, ptr, [6 x ptr], i32, %"class.std::vector", %"struct.nanogui::Array", float, i32, i32, %"struct.nanogui::Array", i8, ptr, double, i8, %"class.nanogui::Color", %"class.std::__cxx11::basic_string", i8, i8, i8, i8, i8, i8, %"class.std::function" }
%"class.nanogui::Widget.base" = type <{ %"class.nanogui::Object.base", [4 x i8], ptr, %"class.nanogui::ref", %"class.nanogui::ref.0", %"struct.nanogui::Array", %"struct.nanogui::Array", %"struct.nanogui::Array", %"class.std::vector", i8, i8, i8, i8, [4 x i8], %"class.std::__cxx11::basic_string", i32, float, i32 }>
%"class.nanogui::Object.base" = type <{ ptr, %"struct.std::atomic" }>
%"struct.std::atomic" = type { %"struct.std::__atomic_base" }
%"struct.std::__atomic_base" = type { i32 }
%"class.nanogui::ref" = type { ptr }
%"class.nanogui::ref.0" = type { ptr }
%"class.std::vector" = type { %"struct.std::_Vector_base" }
%"struct.std::_Vector_base" = type { %"struct.std::_Vector_base<nanogui::Widget *, std::allocator<nanogui::Widget *>>::_Vector_impl" }
%"struct.std::_Vector_base<nanogui::Widget *, std::allocator<nanogui::Widget *>>::_Vector_impl" = type { %"struct.std::_Vector_base<nanogui::Widget *, std::allocator<nanogui::Widget *>>::_Vector_impl_data" }
%"struct.std::_Vector_base<nanogui::Widget *, std::allocator<nanogui::Widget *>>::_Vector_impl_data" = type { ptr, ptr, ptr }
%"struct.nanogui::Array" = type { [2 x i32] }
%"class.nanogui::Color" = type { %"struct.nanogui::Array.7" }
%"struct.nanogui::Array.7" = type { [4 x float] }
%"class.std::__cxx11::basic_string" = type { %"struct.std::__cxx11::basic_string<char>::_Alloc_hider", i64, %union.anon }
%"struct.std::__cxx11::basic_string<char>::_Alloc_hider" = type { ptr }
%union.anon = type { i64, [8 x i8] }
%"class.std::function" = type { %"class.std::_Function_base", ptr }
%"class.std::_Function_base" = type { %"union.std::_Any_data", ptr }
%"union.std::_Any_data" = type { %"union.std::_Nocopy_types" }
%"union.std::_Nocopy_types" = type { { i64, i64 } }
%"class.nanogui::Widget" = type <{ %"class.nanogui::Object.base", [4 x i8], ptr, %"class.nanogui::ref", %"class.nanogui::ref.0", %"struct.nanogui::Array", %"struct.nanogui::Array", %"struct.nanogui::Array", %"class.std::vector", i8, i8, i8, i8, [4 x i8], %"class.std::__cxx11::basic_string", i32, float, i32, [4 x i8] }>

; Function Attrs: mustprogress uwtable
define hidden void @_ZN7nanogui6Screen11set_visibleEb(ptr noundef nonnull align 8 dereferenceable(384) %0, i1 noundef zeroext %1) #4 align 2 {
  %3 = alloca ptr, align 8
  %4 = alloca i8, align 1
  store ptr %0, ptr %3, align 8
  %5 = zext i1 %1 to i8
  store i8 %5, ptr %4, align 1
  %6 = load ptr, ptr %3, align 8
  %7 = getelementptr inbounds %"class.nanogui::Widget", ptr %6, i32 0, i32 9
  %8 = load i8, ptr %7, align 8
  %9 = trunc i8 %8 to i1
  %10 = zext i1 %9 to i32
  %11 = load i8, ptr %4, align 1
  %12 = trunc i8 %11 to i1
  %13 = zext i1 %12 to i32
  %14 = icmp ne i32 %10, %13
  br i1 %14, label %15, label %29

15:                                               ; preds = %2
  %16 = load i8, ptr %4, align 1
  %17 = trunc i8 %16 to i1
  %18 = getelementptr inbounds %"class.nanogui::Widget", ptr %6, i32 0, i32 9
  %19 = zext i1 %17 to i8
  store i8 %19, ptr %18, align 8
  %20 = load i8, ptr %4, align 1
  %21 = trunc i8 %20 to i1
  br i1 %21, label %22, label %25

22:                                               ; preds = %15
  %23 = getelementptr inbounds %"class.nanogui::Screen", ptr %6, i32 0, i32 1
  %24 = load ptr, ptr %23, align 8
  call void @glfwShowWindow(ptr noundef %24)
  br label %28

25:                                               ; preds = %15
  %26 = getelementptr inbounds %"class.nanogui::Screen", ptr %6, i32 0, i32 1
  %27 = load ptr, ptr %26, align 8
  call void @glfwHideWindow(ptr noundef %27)
  br label %28

28:                                               ; preds = %25, %22
  br label %29

29:                                               ; preds = %28, %2
  ret void
}