; Function Attrs: mustprogress uwtable
define hidden void @_ZN7nanogui6Screen11set_visibleEb(ptr nocapture noundef nonnull align 8 dereferenceable(384) %0, i1 noundef zeroext %1) local_unnamed_addr #3 align 2 {
  %3 = getelementptr inbounds i8, ptr %0, i64 88
  %4 = load i8, ptr %3, align 8
  %5 = and i8 %4, 1
  %6 = icmp eq i8 %5, 0
  %.not = xor i1 %6, %1
  br i1 %.not, label %13, label %7

7:                                                ; preds = %2
  %8 = zext i1 %1 to i8
  store i8 %8, ptr %3, align 8
  %9 = getelementptr inbounds i8, ptr %0, i64 144
  %10 = load ptr, ptr %9, align 8
  br i1 %1, label %11, label %12

11:                                               ; preds = %7
  tail call void @glfwShowWindow(ptr noundef %10)
  br label %13

12:                                               ; preds = %7
  tail call void @glfwHideWindow(ptr noundef %10)
  br label %13

13:                                               ; preds = %11, %12, %2
  ret void
}